; ModuleID = '48/991.cpp'
source_filename = "48/991.cpp"
target datalayout = "e-m:e-p270:32:32-p271:32:32-p272:64:64-i64:64-f80:128-n8:16:32:64-S128"
target triple = "x86_64-pc-linux-gnu"

%"class.std::ios_base::Init" = type { i8 }
%"class.std::basic_istream" = type { i32 (...)**, i64, %"class.std::basic_ios" }
%"class.std::basic_ios" = type { %"class.std::ios_base", %"class.std::basic_ostream"*, i8, i8, %"class.std::basic_streambuf"*, %"class.std::ctype"*, %"class.std::num_put"*, %"class.std::num_get"* }
%"class.std::ios_base" = type { i32 (...)**, i64, i64, i32, i32, i32, %"struct.std::ios_base::_Callback_list"*, %"struct.std::ios_base::_Words", [8 x %"struct.std::ios_base::_Words"], i32, %"struct.std::ios_base::_Words"*, %"class.std::locale" }
%"struct.std::ios_base::_Callback_list" = type { %"struct.std::ios_base::_Callback_list"*, void (i32, %"class.std::ios_base"*, i32)*, i32, i32 }
%"struct.std::ios_base::_Words" = type { i8*, i64 }
%"class.std::locale" = type { %"class.std::locale::_Impl"* }
%"class.std::locale::_Impl" = type { i32, %"class.std::locale::facet"**, i64, %"class.std::locale::facet"**, i8** }
%"class.std::locale::facet" = type <{ i32 (...)**, i32, [4 x i8] }>
%"class.std::basic_ostream" = type { i32 (...)**, %"class.std::basic_ios" }
%"class.std::basic_streambuf" = type { i32 (...)**, i8*, i8*, i8*, i8*, i8*, i8*, %"class.std::locale" }
%"class.std::ctype" = type <{ %"class.std::locale::facet.base", [4 x i8], %struct.__locale_struct*, i8, [7 x i8], i32*, i32*, i16*, i8, [256 x i8], [256 x i8], i8, [6 x i8] }>
%"class.std::locale::facet.base" = type <{ i32 (...)**, i32 }>
%struct.__locale_struct = type { [13 x %struct.__locale_data*], i16*, i32*, i32*, [13 x i8*] }
%struct.__locale_data = type opaque
%"class.std::num_put" = type { %"class.std::locale::facet.base", [4 x i8] }
%"class.std::num_get" = type { %"class.std::locale::facet.base", [4 x i8] }

@_ZStL8__ioinit = internal global %"class.std::ios_base::Init" zeroinitializer, align 1
@__dso_handle = external hidden global i8
@chess = dso_local global [15 x [15 x i32]] zeroinitializer, align 16
@d = dso_local global i32 0, align 4
@_ZSt3cin = external dso_local global %"class.std::basic_istream", align 8
@_ZSt4cout = external dso_local global %"class.std::basic_ostream", align 8
@.str = private unnamed_addr constant [2 x i8] c" \00", align 1
@llvm.global_ctors = appending global [1 x { i32, void ()*, i8* }] [{ i32, void ()*, i8* } { i32 65535, void ()* @_GLOBAL__sub_I_991.cpp, i8* null }]

; Function Attrs: noinline uwtable
define internal void @__cxx_global_var_init() #0 section ".text.startup" {
  call void @_ZNSt8ios_base4InitC1Ev(%"class.std::ios_base::Init"* @_ZStL8__ioinit)
  %1 = call i32 @__cxa_atexit(void (i8*)* bitcast (void (%"class.std::ios_base::Init"*)* @_ZNSt8ios_base4InitD1Ev to void (i8*)*), i8* getelementptr inbounds (%"class.std::ios_base::Init", %"class.std::ios_base::Init"* @_ZStL8__ioinit, i32 0, i32 0), i8* @__dso_handle) #3
  ret void
}

declare dso_local void @_ZNSt8ios_base4InitC1Ev(%"class.std::ios_base::Init"*) unnamed_addr #1

; Function Attrs: nounwind
declare dso_local void @_ZNSt8ios_base4InitD1Ev(%"class.std::ios_base::Init"*) unnamed_addr #2

; Function Attrs: nounwind
declare dso_local i32 @__cxa_atexit(void (i8*)*, i8*, i8*) #3

; Function Attrs: noinline uwtable
define dso_local i32 @_Z1fiii(i32 %0, i32 %1, i32 %2) #0 {
  %4 = alloca i32, align 4
  %5 = alloca i32, align 4
  %6 = alloca i32, align 4
  %7 = alloca i32, align 4
  store i32 %0, i32* %5, align 4
  store i32 %1, i32* %6, align 4
  store i32 %2, i32* %7, align 4
  %8 = load i32, i32* %5, align 4
  %9 = icmp slt i32 %8, 1
  br i1 %9, label %19, label %10

10:                                               ; preds = %3
  %11 = load i32, i32* %5, align 4
  %12 = icmp sgt i32 %11, 9
  br i1 %12, label %19, label %13

13:                                               ; preds = %10
  %14 = load i32, i32* %6, align 4
  %15 = icmp slt i32 %14, 1
  br i1 %15, label %19, label %16

16:                                               ; preds = %13
  %17 = load i32, i32* %6, align 4
  %18 = icmp sgt i32 %17, 9
  br i1 %18, label %19, label %20

19:                                               ; preds = %16, %13, %10, %3
  store i32 0, i32* %4, align 4
  br label %98

20:                                               ; preds = %16
  %21 = load i32, i32* %7, align 4
  %22 = icmp eq i32 %21, 0
  br i1 %22, label %23, label %31

23:                                               ; preds = %20
  %24 = load i32, i32* %5, align 4
  %25 = sext i32 %24 to i64
  %26 = getelementptr inbounds [15 x [15 x i32]], [15 x [15 x i32]]* @chess, i64 0, i64 %25
  %27 = load i32, i32* %6, align 4
  %28 = sext i32 %27 to i64
  %29 = getelementptr inbounds [15 x i32], [15 x i32]* %26, i64 0, i64 %28
  %30 = load i32, i32* %29, align 4
  store i32 %30, i32* %4, align 4
  br label %98

31:                                               ; preds = %20
  %32 = load i32, i32* %5, align 4
  %33 = load i32, i32* %6, align 4
  %34 = load i32, i32* %7, align 4
  %35 = sub nsw i32 %34, 1
  %36 = call i32 @_Z1fiii(i32 %32, i32 %33, i32 %35)
  %37 = mul nsw i32 %36, 2
  %38 = load i32, i32* %5, align 4
  %39 = load i32, i32* %6, align 4
  %40 = sub nsw i32 %39, 1
  %41 = load i32, i32* %7, align 4
  %42 = sub nsw i32 %41, 1
  %43 = call i32 @_Z1fiii(i32 %38, i32 %40, i32 %42)
  %44 = add nsw i32 %37, %43
  %45 = load i32, i32* %5, align 4
  %46 = load i32, i32* %6, align 4
  %47 = add nsw i32 %46, 1
  %48 = load i32, i32* %7, align 4
  %49 = sub nsw i32 %48, 1
  %50 = call i32 @_Z1fiii(i32 %45, i32 %47, i32 %49)
  %51 = add nsw i32 %44, %50
  %52 = load i32, i32* %5, align 4
  %53 = add nsw i32 %52, 1
  %54 = load i32, i32* %6, align 4
  %55 = load i32, i32* %7, align 4
  %56 = sub nsw i32 %55, 1
  %57 = call i32 @_Z1fiii(i32 %53, i32 %54, i32 %56)
  %58 = add nsw i32 %51, %57
  %59 = load i32, i32* %5, align 4
  %60 = sub nsw i32 %59, 1
  %61 = load i32, i32* %6, align 4
  %62 = load i32, i32* %7, align 4
  %63 = sub nsw i32 %62, 1
  %64 = call i32 @_Z1fiii(i32 %60, i32 %61, i32 %63)
  %65 = add nsw i32 %58, %64
  %66 = load i32, i32* %5, align 4
  %67 = sub nsw i32 %66, 1
  %68 = load i32, i32* %6, align 4
  %69 = sub nsw i32 %68, 1
  %70 = load i32, i32* %7, align 4
  %71 = sub nsw i32 %70, 1
  %72 = call i32 @_Z1fiii(i32 %67, i32 %69, i32 %71)
  %73 = add nsw i32 %65, %72
  %74 = load i32, i32* %5, align 4
  %75 = sub nsw i32 %74, 1
  %76 = load i32, i32* %6, align 4
  %77 = add nsw i32 %76, 1
  %78 = load i32, i32* %7, align 4
  %79 = sub nsw i32 %78, 1
  %80 = call i32 @_Z1fiii(i32 %75, i32 %77, i32 %79)
  %81 = add nsw i32 %73, %80
  %82 = load i32, i32* %5, align 4
  %83 = add nsw i32 %82, 1
  %84 = load i32, i32* %6, align 4
  %85 = sub nsw i32 %84, 1
  %86 = load i32, i32* %7, align 4
  %87 = sub nsw i32 %86, 1
  %88 = call i32 @_Z1fiii(i32 %83, i32 %85, i32 %87)
  %89 = add nsw i32 %81, %88
  %90 = load i32, i32* %5, align 4
  %91 = add nsw i32 %90, 1
  %92 = load i32, i32* %6, align 4
  %93 = add nsw i32 %92, 1
  %94 = load i32, i32* %7, align 4
  %95 = sub nsw i32 %94, 1
  %96 = call i32 @_Z1fiii(i32 %91, i32 %93, i32 %95)
  %97 = add nsw i32 %89, %96
  store i32 %97, i32* %4, align 4
  br label %98

98:                                               ; preds = %31, %23, %19
  %99 = load i32, i32* %4, align 4
  ret i32 %99
}

; Function Attrs: noinline norecurse uwtable
define dso_local i32 @main() #4 {
  %1 = alloca i32, align 4
  %2 = alloca i32, align 4
  %3 = alloca i32, align 4
  store i32 0, i32* %1, align 4
  %4 = call dereferenceable(280) %"class.std::basic_istream"* @_ZNSirsERi(%"class.std::basic_istream"* @_ZSt3cin, i32* dereferenceable(4) getelementptr inbounds ([15 x [15 x i32]], [15 x [15 x i32]]* @chess, i64 0, i64 5, i64 5))
  %5 = call dereferenceable(280) %"class.std::basic_istream"* @_ZNSirsERi(%"class.std::basic_istream"* %4, i32* dereferenceable(4) @d)
  store i32 1, i32* %2, align 4
  br label %6

6:                                                ; preds = %29, %0
  %7 = load i32, i32* %2, align 4
  %8 = icmp sle i32 %7, 9
  br i1 %8, label %9, label %32

9:                                                ; preds = %6
  %10 = load i32, i32* %2, align 4
  %11 = load i32, i32* @d, align 4
  %12 = call i32 @_Z1fiii(i32 %10, i32 1, i32 %11)
  %13 = call dereferenceable(272) %"class.std::basic_ostream"* @_ZNSolsEi(%"class.std::basic_ostream"* @_ZSt4cout, i32 %12)
  store i32 2, i32* %3, align 4
  br label %14

14:                                               ; preds = %24, %9
  %15 = load i32, i32* %3, align 4
  %16 = icmp sle i32 %15, 9
  br i1 %16, label %17, label %27

17:                                               ; preds = %14
  %18 = call dereferenceable(272) %"class.std::basic_ostream"* @_ZStlsISt11char_traitsIcEERSt13basic_ostreamIcT_ES5_PKc(%"class.std::basic_ostream"* dereferenceable(272) @_ZSt4cout, i8* getelementptr inbounds ([2 x i8], [2 x i8]* @.str, i64 0, i64 0))
  %19 = load i32, i32* %2, align 4
  %20 = load i32, i32* %3, align 4
  %21 = load i32, i32* @d, align 4
  %22 = call i32 @_Z1fiii(i32 %19, i32 %20, i32 %21)
  %23 = call dereferenceable(272) %"class.std::basic_ostream"* @_ZNSolsEi(%"class.std::basic_ostream"* %18, i32 %22)
  br label %24

24:                                               ; preds = %17
  %25 = load i32, i32* %3, align 4
  %26 = add nsw i32 %25, 1
  store i32 %26, i32* %3, align 4
  br label %14

27:                                               ; preds = %14
  %28 = call dereferenceable(272) %"class.std::basic_ostream"* @_ZNSolsEPFRSoS_E(%"class.std::basic_ostream"* @_ZSt4cout, %"class.std::basic_ostream"* (%"class.std::basic_ostream"*)* @_ZSt4endlIcSt11char_traitsIcEERSt13basic_ostreamIT_T0_ES6_)
  br label %29

29:                                               ; preds = %27
  %30 = load i32, i32* %2, align 4
  %31 = add nsw i32 %30, 1
  store i32 %31, i32* %2, align 4
  br label %6

32:                                               ; preds = %6
  ret i32 0
}

declare dso_local dereferenceable(280) %"class.std::basic_istream"* @_ZNSirsERi(%"class.std::basic_istream"*, i32* dereferenceable(4)) #1

declare dso_local dereferenceable(272) %"class.std::basic_ostream"* @_ZNSolsEi(%"class.std::basic_ostream"*, i32) #1

declare dso_local dereferenceable(272) %"class.std::basic_ostream"* @_ZStlsISt11char_traitsIcEERSt13basic_ostreamIcT_ES5_PKc(%"class.std::basic_ostream"* dereferenceable(272), i8*) #1

declare dso_local dereferenceable(272) %"class.std::basic_ostream"* @_ZNSolsEPFRSoS_E(%"class.std::basic_ostream"*, %"class.std::basic_ostream"* (%"class.std::basic_ostream"*)*) #1

declare dso_local dereferenceable(272) %"class.std::basic_ostream"* @_ZSt4endlIcSt11char_traitsIcEERSt13basic_ostreamIT_T0_ES6_(%"class.std::basic_ostream"* dereferenceable(272)) #1

; Function Attrs: noinline uwtable
define internal void @_GLOBAL__sub_I_991.cpp() #0 section ".text.startup" {
  call void @__cxx_global_var_init()
  ret void
}


!llvm.module.flags = !{!0}
!llvm.ident = !{!1}

!0 = !{i32 1, !"wchar_size", i32 4}
!1 = !{!"clang version 10.0.0-4ubuntu1 "}
